target datalayout = "e-m:e-p270:32:32-p271:32:32-p272:64:64-i64:64-i128:128-f80:128-n8:16:32:64-S128"
target triple = "x86_64-pc-linux-gnu"

@.str.5 = private unnamed_addr constant [33 x i8] c"../openssl/test/quic_wire_test.c\00", align 1
@.str.19 = private unnamed_addr constant [35 x i8] c"ossl_quic_wire_decode_padding(pkt)\00", align 1
@.str.20 = private unnamed_addr constant [2 x i8] c"3\00", align 1

; Function Attrs: nounwind uwtable
define internal i32 @encode_case_1_dec(ptr noundef %0, i64 noundef %1) #0 {
  %3 = alloca i32, align 4
  %4 = alloca ptr, align 8
  %5 = alloca i64, align 8
  store ptr %0, ptr %4, align 8, !tbaa !40
  store i64 %1, ptr %5, align 8, !tbaa !19
  %6 = load i64, ptr %5, align 8, !tbaa !19
  %7 = icmp sge i64 %6, 0
  br i1 %7, label %8, label %9

8:                                                ; preds = %2
  store i32 1, ptr %3, align 4
  br label %17

9:                                                ; preds = %2
  %10 = load ptr, ptr %4, align 8, !tbaa !40
  %11 = call i64 @ossl_quic_wire_decode_padding(ptr noundef %10)
  %12 = trunc i64 %11 to i32
  %13 = call i32 @test_int_eq(ptr noundef @.str.5, i32 noundef 42, ptr noundef @.str.19, ptr noundef @.str.20, i32 noundef %12, i32 noundef 3)
  %14 = icmp ne i32 %13, 0
  br i1 %14, label %16, label %15

15:                                               ; preds = %9
  store i32 0, ptr %3, align 4
  br label %17

16:                                               ; preds = %9
  store i32 1, ptr %3, align 4
  br label %17

17:                                               ; preds = %16, %15, %8
  %18 = load i32, ptr %3, align 4
  ret i32 %18
}