; Function Attrs: nounwind uwtable
define internal range(i32 0, 2) i32 @encode_case_1_dec(ptr noundef %0, i64 noundef %1) #0 {
  %3 = icmp sgt i64 %1, -1
  br i1 %3, label %8, label %4

4:                                                ; preds = %2
  %5 = tail call i64 @ossl_quic_wire_decode_padding(ptr noundef %0) #4
  %6 = trunc i64 %5 to i32
  %7 = tail call i32 @test_int_eq(ptr noundef nonnull @.str.5, i32 noundef 42, ptr noundef nonnull @.str.19, ptr noundef nonnull @.str.20, i32 noundef %6, i32 noundef 3) #4
  %.not = icmp ne i32 %7, 0
  %. = zext i1 %.not to i32
  br label %8

8:                                                ; preds = %4, %2
  %.0 = phi i32 [ 1, %2 ], [ %., %4 ]
  ret i32 %.0
}